(dp0
S'tests'
p1
(dp2
S'tests.unit.test_bind_function_to_object.BindFunctionToObjectTestCase.test_when_binding_a_function_to_an_object_it_is_available_for_the_object_instance'
p3
I9
sS'tests.unit.fakes.test_fake.FakeTestCase.test_when_not_implementing_foo_it_will_appear_on_the_not_implemented_list_of_the_fake_object'
p4
I2
sS'tests.unit.test_bind_function_to_object.BindFunctionToObjectTestCase.test_when_providing_a_non_callable_a_type_error_is_raised'
p5
I14
sS'tests.unit.test_bind_function_to_object.BindFunctionToObjectTestCase.test_when_binding_a_function_to_an_object_it_is_callable_on_the_object_instance'
p6
I10
sS'tests.unit.fakes.test_fake.FakeTestCase.test_when_providing_a_string_that_is_a_valid_import_path_the_test_double_object_is_imported'
p7
I4
sS'tests.unit.fakes.test_fake.FakeTestCase.test_when_providing_a_string_that_is_an_invalid_import_path_an_import_error_is_raised'
p8
I5
sS'tests.unit.test_bind_function_to_object.BindFunctionToObjectTestCase.test_when_providing_a_non_boundable_function_a_value_error_is_raised'
p9
I12
sS'tests.unit.fakes.test_fake.FakeTestCase.test_when_providing_a_string_that_is_a_valid_import_path_the_target_object_is_imported'
p10
I3
sS'tests.unit.test_not_implemented.NotImplementedWrapperTestCase.test_when_calling_a_wrapped_function_with_the_not_implemented_decorator_the_not_implemented_error_message_is_correct'
p11
I8
sS'tests.unit.fakes.test_fake.FakeTestCase.test_when_providing_a_string_that_is_an_invalid_import_to_the_test_double_path_an_import_error_is_raised'
p12
I6
sS'tests.unit.test_bind_function_to_object.BindFunctionToObjectTestCase.test_when_providing_a_non_boundable_function_then_the_value_error_message_is_correct'
p13
I13
sS'tests.unit.test_bind_function_to_object.BindFunctionToObjectTestCase.test_when_binding_a_function_to_an_object_then_the_object_is_returned'
p14
I11
sS'tests.unit.test_not_implemented.NotImplementedWrapperTestCase.test_when_calling_a_wrapped_function_with_the_not_implemented_decorator_a_not_implemented_error_is_raised'
p15
I7
sS'tests.unit.fakes.test_fake.FakeTestCase.test_when_calling_a_non_implemented_method_foo_on_the_fake_object_it_will_raise_an_unimplemented_error'
p16
I1
ssS'ids'
p17
(dp18
I1
g16
sI2
g4
sI3
g10
sI4
g7
sI5
g8
sI6
g12
sI7
g15
sI8
g11
sI9
g3
sI10
g6
sI11
g14
sI12
g9
sI13
g13
sI14
g5
ss.