(dp0
S'tests'
p1
(dp2
S'tests.functional.utils.test_are_argspecs_identical.A keyword arguments comparison method.test 0000: should return true if the argspecs are completely identical'
p3
I1
ssS'ids'
p4
(dp5
I1
g3
ss.