(dp0
S'tests'
p1
(dp2
S'tests.unit.utils.test_are_arguments_identical.A arguments comparison method.test 0000: should return true if the first method has an argument and the second method has specified a varargs argument'
p3
I4
sS'tests.unit.utils.test_are_arguments_identical.A arguments comparison method.test 0001: should return true if the first method has specified a varargs argument and the second method has an argument '
p4
I5
sS'tests.unit.utils.test_are_arguments_identical.A arguments comparison method.test 0002: should return true if both methods have the same amount of arguments'
p5
I6
sS'tests.unit.utils.test_are_argspecs_identical.A argspecs comparison method.test 0002: should return false if the argspecs are completely different'
p6
I3
sS'tests.unit.utils.test_are_argspecs_identical.A argspecs comparison method.test 0001: should return true if the argspecs are almost identical'
p7
I2
sS'tests.unit.utils.test_are_argspecs_identical.A argspecs comparison method.test 0000: should return true if the argspecs are completely identical'
p8
I1
ssS'ids'
p9
(dp10
I1
g8
sI2
g7
sI3
g6
sI4
g3
sI5
g4
sI6
g5
ss.