(dp0
S'tests'
p1
(dp2
S'tests.unit.test_bind_function_to_object.BindFunctionToObjectTestCase.test_when_binding_a_function_to_an_object_it_is_callable_on_the_object_instance'
p3
I4
sS'tests.unit.test_bind_function_to_object.BindFunctionToObjectTestCase.test_when_binding_a_function_to_an_object_it_is_available_for_the_object_instance'
p4
I3
sS'tests.unit.test_bind_function_to_object.BindFunctionToObjectTestCase.test_when_providing_a_non_callable_a_type_error_is_raised'
p5
I8
sS'tests.unit.test_not_implemented.NotImplementedWrapperTestCase.test_when_calling_a_wrapped_function_with_the_not_implemented_decorator_the_not_implemented_error_message_is_correct'
p6
I2
sS'tests.unit.test_bind_function_to_object.BindFunctionToObjectTestCase.test_when_providing_a_non_boundable_function_a_value_error_is_raised'
p7
I6
sS'tests.unit.test_bind_function_to_object.BindFunctionToObjectTestCase.test_when_providing_a_non_boundable_function_then_the_value_error_message_is_correct'
p8
I7
sS'tests.unit.test_bind_function_to_object.BindFunctionToObjectTestCase.test_when_binding_a_function_to_an_object_then_the_object_is_returned'
p9
I5
sS'tests.unit.test_not_implemented.NotImplementedWrapperTestCase.test_when_calling_a_wrapped_function_with_the_not_implemented_decorator_a_not_implemented_error_is_raised'
p10
I1
ssS'ids'
p11
(dp12
I1
g10
sI2
g6
sI3
g4
sI4
g3
sI5
g9
sI6
g7
sI7
g8
sI8
g5
ss.