(dp0
S'tests'
p1
(dp2
S'tests.unit.utils.test_are_arguments_identical.A arguments comparison method.test 0000: should return true if the first method has an argument and the second method has specified a varargs argument'
p3
I4
sS"tests.unit.utils.test_are_arguments_identical.A arguments comparison method.test 0003: should return false if the first method doesn't have the same amount of arguments as the second"
p4
I7
sS"tests.unit.utils.test_are_arguments_identical.A arguments comparison method.test 0004: should return false if the second method doesn't have the same amount of arguments as the first"
p5
I8
sS'tests.unit.utils.test_are_arguments_identical.A arguments comparison method.test 0001: should return true if the first method has specified a varargs argument and the second method has an argument '
p6
I5
sS'tests.unit.utils.test_are_arguments_identical.A arguments comparison method.test 0002: should return true if both methods have the same amount of arguments'
p7
I6
sS'tests.unit.utils.test_are_argspecs_identical.A argspecs comparison method.test 0002: should return false if the argspecs are completely different'
p8
I3
sS'tests.unit.utils.test_are_argspecs_identical.A argspecs comparison method.test 0001: should return true if the argspecs are almost identical'
p9
I2
sS'tests.unit.utils.test_are_argspecs_identical.A argspecs comparison method.test 0000: should return true if the argspecs are completely identical'
p10
I1
ssS'ids'
p11
(dp12
I1
g10
sI2
g9
sI3
g8
sI4
g3
sI5
g6
sI6
g7
sI7
g4
sI8
g5
ss.